; Function Attrs: mustprogress nofree norecurse nosync nounwind memory(readwrite, inaccessiblemem: none) uwtable
define hidden void @_ZN10Block_List6removeEj(ptr nocapture noundef nonnull align 8 dereferenceable(28) %0, i32 noundef %1) local_unnamed_addr #2 align 2 {
  %3 = getelementptr inbounds i8, ptr %0, i64 24
  %4 = load i32, ptr %3, align 8
  %5 = xor i32 %1, -1
  %6 = add i32 %4, %5
  %.not8.i = icmp eq i32 %6, 0
  br i1 %.not8.i, label %_ZN4Copy23conjoint_words_to_lowerEPKP12HeapWordImplPS1_m.exit, label %.lr.ph.preheader.i

.lr.ph.preheader.i:                               ; preds = %2
  %7 = zext i32 %6 to i64
  %8 = getelementptr inbounds i8, ptr %0, i64 16
  %9 = load ptr, ptr %8, align 8
  %10 = zext i32 %1 to i64
  %11 = getelementptr ptr, ptr %9, i64 %10
  %12 = add i32 %1, 1
  %13 = zext i32 %12 to i64
  %14 = getelementptr ptr, ptr %9, i64 %13
  br label %.lr.ph.i

.lr.ph.i:                                         ; preds = %.lr.ph.i, %.lr.ph.preheader.i
  %.011.i = phi i64 [ %15, %.lr.ph.i ], [ %7, %.lr.ph.preheader.i ]
  %.0610.i = phi ptr [ %16, %.lr.ph.i ], [ %14, %.lr.ph.preheader.i ]
  %.079.i = phi ptr [ %18, %.lr.ph.i ], [ %11, %.lr.ph.preheader.i ]
  %15 = add nsw i64 %.011.i, -1
  %16 = getelementptr inbounds i8, ptr %.0610.i, i64 8
  %17 = load ptr, ptr %.0610.i, align 8
  %18 = getelementptr inbounds i8, ptr %.079.i, i64 8
  store ptr %17, ptr %.079.i, align 8
  %.not.i = icmp eq i64 %15, 0
  br i1 %.not.i, label %_ZN4Copy23conjoint_words_to_lowerEPKP12HeapWordImplPS1_m.exit.loopexit, label %.lr.ph.i, !llvm.loop !6

_ZN4Copy23conjoint_words_to_lowerEPKP12HeapWordImplPS1_m.exit.loopexit: ; preds = %.lr.ph.i
  %.pre = load i32, ptr %3, align 8
  br label %_ZN4Copy23conjoint_words_to_lowerEPKP12HeapWordImplPS1_m.exit

_ZN4Copy23conjoint_words_to_lowerEPKP12HeapWordImplPS1_m.exit: ; preds = %_ZN4Copy23conjoint_words_to_lowerEPKP12HeapWordImplPS1_m.exit.loopexit, %2
  %19 = phi i32 [ %.pre, %_ZN4Copy23conjoint_words_to_lowerEPKP12HeapWordImplPS1_m.exit.loopexit ], [ %4, %2 ]
  %20 = add i32 %19, -1
  store i32 %20, ptr %3, align 8
  ret void
}